target datalayout = "e-m:e-p270:32:32-p271:32:32-p272:64:64-i64:64-i128:128-f80:128-n8:16:32:64-S128"
target triple = "x86_64-pc-linux-gnu"

%class.UatModel = type { %class.QAbstractTableModel, ptr, i8, %class.QList, %class.QList.0 }
%class.QAbstractTableModel = type { %class.QAbstractItemModel }
%class.QAbstractItemModel = type { %class.QObject }
%class.QObject = type { ptr, %class.QScopedPointer }
%class.QScopedPointer = type { ptr }
%class.QList = type { %struct.QArrayDataPointer }
%struct.QArrayDataPointer = type { ptr, ptr, i64 }
%class.QList.0 = type { %struct.QArrayDataPointer.3 }
%struct.QArrayDataPointer.3 = type { ptr, ptr, i64 }
%class.QMap = type { %"class.QtPrivate::QExplicitlySharedDataPointerV2" }
%"class.QtPrivate::QExplicitlySharedDataPointerV2" = type { ptr }
%class.QList.5 = type { %struct.QArrayDataPointer.8 }
%struct.QArrayDataPointer.8 = type { ptr, ptr, i64 }
%struct.epan_uat = type { ptr, i64, ptr, i8, ptr, i32, ptr, ptr, ptr, ptr, ptr, ptr, ptr, ptr, ptr, i32, ptr, ptr, ptr, i8, ptr, ptr, i8 }
%struct._GArray = type { ptr, i32 }
%class.QFlags.24 = type { i32 }
%class.QBasicAtomicInteger = type { %"struct.std::atomic" }
%"struct.std::atomic" = type { %"struct.std::__atomic_base" }
%"struct.std::__atomic_base" = type { i32 }
%struct.QArrayData = type { %class.QBasicAtomicInteger, %class.QFlags.24, i64 }

; Function Attrs: mustprogress nounwind null_pointer_is_valid sspstrong uwtable
define linkonce_odr noundef i32 @_ZNSt13__atomic_baseIiEmmEv(ptr noundef align 4 dereferenceable_or_null(4) %0) #2 comdat align 2 {
  %2 = alloca ptr, align 8
  %3 = alloca i32, align 4
  %4 = alloca i32, align 4
  store ptr %0, ptr %2, align 8
  %5 = load ptr, ptr %2, align 8
  %6 = getelementptr inbounds nuw %"struct.std::__atomic_base", ptr %5, i32 0, i32 0
  store i32 1, ptr %3, align 4
  %7 = load i32, ptr %3, align 4
  %8 = atomicrmw sub ptr %6, i32 %7 seq_cst, align 4
  %9 = sub i32 %8, %7
  store i32 %9, ptr %4, align 4
  %10 = load i32, ptr %4, align 4
  ret i32 %10
}

; Function Attrs: inlinehint mustprogress nounwind null_pointer_is_valid sspstrong uwtable
define linkonce_odr noundef zeroext i1 @_ZN10QAtomicOpsIiE5derefIiEEbRSt6atomicIT_E(ptr noundef align 4 dereferenceable(4) %0) #3 comdat align 2 {
  %2 = alloca ptr, align 8
  store ptr %0, ptr %2, align 8
  %3 = load ptr, ptr %2, align 8
  %4 = call noundef i32 @_ZNSt13__atomic_baseIiEmmEv(ptr noundef align 4 dereferenceable_or_null(4) %3) #23
  %5 = icmp ne i32 %4, 0
  ret i1 %5
}

; Function Attrs: mustprogress nounwind null_pointer_is_valid sspstrong uwtable
define linkonce_odr noundef ptr @_ZN17QArrayDataPointerIbE4dataEv(ptr noundef align 8 dereferenceable_or_null(24) %0) #2 comdat align 2 {
  %2 = alloca ptr, align 8
  store ptr %0, ptr %2, align 8
  %3 = load ptr, ptr %2, align 8
  %4 = getelementptr inbounds nuw %struct.QArrayDataPointer, ptr %3, i32 0, i32 1
  %5 = load ptr, ptr %4, align 8
  ret ptr %5
}

; Function Attrs: mustprogress nounwind null_pointer_is_valid sspstrong uwtable
define linkonce_odr noundef zeroext i1 @_ZN19QBasicAtomicIntegerIiE5derefEv(ptr noundef align 4 dereferenceable_or_null(4) %0) #2 comdat align 2 {
  %2 = alloca ptr, align 8
  store ptr %0, ptr %2, align 8
  %3 = load ptr, ptr %2, align 8
  %4 = getelementptr inbounds nuw %class.QBasicAtomicInteger, ptr %3, i32 0, i32 0
  %5 = call noundef zeroext i1 @_ZN10QAtomicOpsIiE5derefIiEEbRSt6atomicIT_E(ptr noundef align 4 dereferenceable(4) %4) #23
  ret i1 %5
}

; Function Attrs: mustprogress nounwind null_pointer_is_valid sspstrong uwtable
define linkonce_odr noundef ptr @_ZN17QArrayDataPointerI4QMapIi7QStringEE4dataEv(ptr noundef align 8 dereferenceable_or_null(24) %0) #2 comdat align 2 {
  %2 = alloca ptr, align 8
  store ptr %0, ptr %2, align 8
  %3 = load ptr, ptr %2, align 8
  %4 = getelementptr inbounds nuw %struct.QArrayDataPointer.3, ptr %3, i32 0, i32 1
  %5 = load ptr, ptr %4, align 8
  ret ptr %5
}

; Function Attrs: mustprogress nounwind null_pointer_is_valid sspstrong uwtable
define linkonce_odr noundef ptr @_ZN17QArrayDataPointerIbE3endEv(ptr noundef align 8 dereferenceable_or_null(24) %0) #2 comdat align 2 {
  %2 = alloca ptr, align 8
  store ptr %0, ptr %2, align 8
  %3 = load ptr, ptr %2, align 8
  %4 = call noundef ptr @_ZN17QArrayDataPointerIbE4dataEv(ptr noundef align 8 dereferenceable_or_null(24) %3) #23
  %5 = getelementptr inbounds nuw %struct.QArrayDataPointer, ptr %3, i32 0, i32 2
  %6 = load i64, ptr %5, align 8
  %7 = getelementptr i8, ptr %4, i64 %6
  ret ptr %7
}

; Function Attrs: mustprogress nounwind null_pointer_is_valid sspstrong uwtable
define linkonce_odr noundef ptr @_ZN17QArrayDataPointerIbEptEv(ptr noundef align 8 dereferenceable_or_null(24) %0) #2 comdat align 2 {
  %2 = alloca ptr, align 8
  store ptr %0, ptr %2, align 8
  %3 = load ptr, ptr %2, align 8
  ret ptr %3
}

; Function Attrs: mustprogress nounwind null_pointer_is_valid sspstrong uwtable
define linkonce_odr noundef zeroext i1 @_ZN10QArrayData5derefEv(ptr noundef align 8 dereferenceable_or_null(16) %0) #2 comdat align 2 {
  %2 = alloca ptr, align 8
  store ptr %0, ptr %2, align 8
  %3 = load ptr, ptr %2, align 8
  %4 = getelementptr inbounds nuw %struct.QArrayData, ptr %3, i32 0, i32 0
  %5 = call noundef zeroext i1 @_ZN19QBasicAtomicIntegerIiE5derefEv(ptr noundef align 4 dereferenceable_or_null(4) %4) #23
  ret i1 %5
}

; Function Attrs: mustprogress nounwind null_pointer_is_valid sspstrong uwtable
define linkonce_odr noundef ptr @_ZN17QArrayDataPointerI4QMapIi7QStringEE3endEv(ptr noundef align 8 dereferenceable_or_null(24) %0) #2 comdat align 2 {
  %2 = alloca ptr, align 8
  store ptr %0, ptr %2, align 8
  %3 = load ptr, ptr %2, align 8
  %4 = call noundef ptr @_ZN17QArrayDataPointerI4QMapIi7QStringEE4dataEv(ptr noundef align 8 dereferenceable_or_null(24) %3) #23
  %5 = getelementptr inbounds nuw %struct.QArrayDataPointer.3, ptr %3, i32 0, i32 2
  %6 = load i64, ptr %5, align 8
  %7 = getelementptr %class.QMap, ptr %4, i64 %6
  ret ptr %7
}

; Function Attrs: mustprogress nounwind null_pointer_is_valid sspstrong uwtable
define linkonce_odr noundef ptr @_ZN17QArrayDataPointerI4QMapIi7QStringEEptEv(ptr noundef align 8 dereferenceable_or_null(24) %0) #2 comdat align 2 {
  %2 = alloca ptr, align 8
  store ptr %0, ptr %2, align 8
  %3 = load ptr, ptr %2, align 8
  ret ptr %3
}

; Function Attrs: inlinehint mustprogress null_pointer_is_valid sspstrong uwtable
define linkonce_odr noundef align 1 dereferenceable(1) ptr @_ZN5QListIbE11emplaceBackIJRbEEES2_DpOT_(ptr noundef align 8 dereferenceable_or_null(24) %0, ptr noundef align 1 dereferenceable(1) %1) #6 comdat align 2 {
  %3 = alloca ptr, align 8
  %4 = alloca ptr, align 8
  store ptr %0, ptr %3, align 8
  store ptr %1, ptr %4, align 8
  %5 = load ptr, ptr %3, align 8
  %6 = getelementptr inbounds nuw %class.QList, ptr %5, i32 0, i32 0
  %7 = call noundef ptr @_ZN17QArrayDataPointerIbEptEv(ptr noundef align 8 dereferenceable_or_null(24) %6) #23
  %8 = getelementptr inbounds nuw %class.QList, ptr %5, i32 0, i32 0
  %9 = call noundef ptr @_ZN17QArrayDataPointerIbEptEv(ptr noundef align 8 dereferenceable_or_null(24) %8) #23
  %10 = getelementptr inbounds nuw %struct.QArrayDataPointer, ptr %9, i32 0, i32 2
  %11 = load i64, ptr %10, align 8
  %12 = load ptr, ptr %4, align 8
  call void @_ZN9QtPrivate12QPodArrayOpsIbE7emplaceIJRbEEEvxDpOT_(ptr noundef align 8 dereferenceable_or_null(24) %7, i64 noundef %11, ptr noundef align 1 dereferenceable(1) %12)
  %13 = getelementptr inbounds nuw %class.QList, ptr %5, i32 0, i32 0
  %14 = call noundef ptr @_ZN17QArrayDataPointerIbE3endEv(ptr noundef align 8 dereferenceable_or_null(24) %13) #23
  %15 = getelementptr i8, ptr %14, i64 -1
  ret ptr %15
}

; Function Attrs: mustprogress nounwind null_pointer_is_valid sspstrong uwtable
define linkonce_odr void @_ZN15QTypedArrayDataIiE10deallocateEP10QArrayData(ptr noundef %0) #2 comdat align 2 {
  %2 = alloca ptr, align 8
  store ptr %0, ptr %2, align 8
  %3 = load ptr, ptr %2, align 8
  call void @_ZN10QArrayData10deallocateEPS_xx(ptr noundef %3, i64 noundef 4, i64 noundef 8) #23
  ret void
}

; Function Attrs: mustprogress nounwind null_pointer_is_valid sspstrong uwtable
define linkonce_odr void @_ZN9QtPrivate12QPodArrayOpsIiE10destroyAllEv(ptr noundef align 8 dereferenceable_or_null(24) %0) #2 comdat align 2 {
  %2 = alloca ptr, align 8
  store ptr %0, ptr %2, align 8
  ret void
}

; Function Attrs: mustprogress nounwind null_pointer_is_valid sspstrong uwtable
define linkonce_odr noundef ptr @_ZN17QArrayDataPointerIiEptEv(ptr noundef align 8 dereferenceable_or_null(24) %0) #2 comdat align 2 {
  %2 = alloca ptr, align 8
  store ptr %0, ptr %2, align 8
  %3 = load ptr, ptr %2, align 8
  ret ptr %3
}

; Function Attrs: mustprogress nounwind null_pointer_is_valid sspstrong uwtable
define linkonce_odr noundef zeroext i1 @_ZN17QArrayDataPointerIiE5derefEv(ptr noundef align 8 dereferenceable_or_null(24) %0) #2 comdat align 2 {
  %2 = alloca ptr, align 8
  store ptr %0, ptr %2, align 8
  %3 = load ptr, ptr %2, align 8
  %4 = getelementptr inbounds nuw %struct.QArrayDataPointer.8, ptr %3, i32 0, i32 0
  %5 = load ptr, ptr %4, align 8
  %6 = icmp ne ptr %5, null
  br i1 %6, label %7, label %11

7:                                                ; preds = %1
  %8 = getelementptr inbounds nuw %struct.QArrayDataPointer.8, ptr %3, i32 0, i32 0
  %9 = load ptr, ptr %8, align 8
  %10 = call noundef zeroext i1 @_ZN10QArrayData5derefEv(ptr noundef align 8 dereferenceable_or_null(16) %9) #23
  br label %11

11:                                               ; preds = %7, %1
  %12 = phi i1 [ true, %1 ], [ %10, %7 ]
  ret i1 %12
}

; Function Attrs: inlinehint mustprogress null_pointer_is_valid sspstrong uwtable
define linkonce_odr noundef align 8 dereferenceable(8) ptr @_ZN5QListI4QMapIi7QStringEE11emplaceBackIJS2_EEERS2_DpOT_(ptr noundef align 8 dereferenceable_or_null(24) %0, ptr noundef align 8 dereferenceable(8) %1) #6 comdat align 2 {
  %3 = alloca ptr, align 8
  %4 = alloca ptr, align 8
  store ptr %0, ptr %3, align 8
  store ptr %1, ptr %4, align 8
  %5 = load ptr, ptr %3, align 8
  %6 = getelementptr inbounds nuw %class.QList.0, ptr %5, i32 0, i32 0
  %7 = call noundef ptr @_ZN17QArrayDataPointerI4QMapIi7QStringEEptEv(ptr noundef align 8 dereferenceable_or_null(24) %6) #23
  %8 = getelementptr inbounds nuw %class.QList.0, ptr %5, i32 0, i32 0
  %9 = call noundef ptr @_ZN17QArrayDataPointerI4QMapIi7QStringEEptEv(ptr noundef align 8 dereferenceable_or_null(24) %8) #23
  %10 = getelementptr inbounds nuw %struct.QArrayDataPointer.3, ptr %9, i32 0, i32 2
  %11 = load i64, ptr %10, align 8
  %12 = load ptr, ptr %4, align 8
  call void @_ZN9QtPrivate16QMovableArrayOpsI4QMapIi7QStringEE7emplaceIJS3_EEEvxDpOT_(ptr noundef align 8 dereferenceable_or_null(24) %7, i64 noundef %11, ptr noundef align 8 dereferenceable(8) %12)
  %13 = getelementptr inbounds nuw %class.QList.0, ptr %5, i32 0, i32 0
  %14 = call noundef ptr @_ZN17QArrayDataPointerI4QMapIi7QStringEE3endEv(ptr noundef align 8 dereferenceable_or_null(24) %13) #23
  %15 = getelementptr %class.QMap, ptr %14, i64 -1
  ret ptr %15
}

; Function Attrs: mustprogress null_pointer_is_valid sspstrong uwtable
define linkonce_odr void @_ZN5QListIbE6appendEb(ptr noundef align 8 dereferenceable_or_null(24) %0, i1 noundef zeroext %1) #0 comdat align 2 {
  %3 = alloca ptr, align 8
  %4 = alloca i8, align 1
  store ptr %0, ptr %3, align 8
  %5 = zext i1 %1 to i8
  store i8 %5, ptr %4, align 1
  %6 = load ptr, ptr %3, align 8
  %7 = call noundef align 1 dereferenceable(1) ptr @_ZN5QListIbE11emplaceBackIJRbEEES2_DpOT_(ptr noundef align 8 dereferenceable_or_null(24) %6, ptr noundef align 1 dereferenceable(1) %4)
  ret void
}

; Function Attrs: mustprogress nounwind null_pointer_is_valid sspstrong uwtable
define linkonce_odr void @_ZN17QArrayDataPointerIiED2Ev(ptr noundef align 8 dereferenceable_or_null(24) %0) unnamed_addr #2 comdat align 2 {
  %2 = alloca ptr, align 8
  store ptr %0, ptr %2, align 8
  %3 = load ptr, ptr %2, align 8
  %4 = call noundef zeroext i1 @_ZN17QArrayDataPointerIiE5derefEv(ptr noundef align 8 dereferenceable_or_null(24) %3) #23
  br i1 %4, label %9, label %5

5:                                                ; preds = %1
  %6 = call noundef ptr @_ZN17QArrayDataPointerIiEptEv(ptr noundef align 8 dereferenceable_or_null(24) %3) #23
  call void @_ZN9QtPrivate12QPodArrayOpsIiE10destroyAllEv(ptr noundef align 8 dereferenceable_or_null(24) %6) #23
  %7 = getelementptr inbounds nuw %struct.QArrayDataPointer.8, ptr %3, i32 0, i32 0
  %8 = load ptr, ptr %7, align 8
  call void @_ZN15QTypedArrayDataIiE10deallocateEP10QArrayData(ptr noundef %8) #23
  br label %9

9:                                                ; preds = %5, %1
  ret void
}

; Function Attrs: mustprogress null_pointer_is_valid sspstrong uwtable
define linkonce_odr void @_ZN5QListI4QMapIi7QStringEE6appendEOS2_(ptr noundef align 8 dereferenceable_or_null(24) %0, ptr noundef align 8 dereferenceable(8) %1) #0 comdat align 2 {
  %3 = alloca ptr, align 8
  %4 = alloca ptr, align 8
  store ptr %0, ptr %3, align 8
  store ptr %1, ptr %4, align 8
  %5 = load ptr, ptr %3, align 8
  %6 = load ptr, ptr %4, align 8
  %7 = call noundef align 8 dereferenceable(8) ptr @_ZN5QListI4QMapIi7QStringEE11emplaceBackIJS2_EEERS2_DpOT_(ptr noundef align 8 dereferenceable_or_null(24) %5, ptr noundef align 8 dereferenceable(8) %6)
  ret void
}

; Function Attrs: mustprogress nounwind null_pointer_is_valid sspstrong uwtable
define linkonce_odr void @_ZN9QtPrivate30QExplicitlySharedDataPointerV2I8QMapDataISt3mapIi7QStringSt4lessIiESaISt4pairIKiS3_EEEEEC2Ev(ptr noundef align 8 dereferenceable_or_null(8) %0) unnamed_addr #2 comdat align 2 {
  %2 = alloca ptr, align 8
  store ptr %0, ptr %2, align 8
  %3 = load ptr, ptr %2, align 8
  %4 = getelementptr inbounds nuw %"class.QtPrivate::QExplicitlySharedDataPointerV2", ptr %3, i32 0, i32 0
  store ptr null, ptr %4, align 8
  ret void
}

; Function Attrs: inlinehint mustprogress null_pointer_is_valid sspstrong uwtable
define linkonce_odr void @_ZN5QListIbE9push_backEb(ptr noundef align 8 dereferenceable_or_null(24) %0, i1 noundef zeroext %1) #6 comdat align 2 {
  %3 = alloca ptr, align 8
  %4 = alloca i8, align 1
  store ptr %0, ptr %3, align 8
  %5 = zext i1 %1 to i8
  store i8 %5, ptr %4, align 1
  %6 = load ptr, ptr %3, align 8
  %7 = load i8, ptr %4, align 1, !range !8, !noundef !9
  %8 = trunc i8 %7 to i1
  call void @_ZN5QListIbE6appendEb(ptr noundef align 8 dereferenceable_or_null(24) %6, i1 noundef zeroext %8)
  ret void
}

; Function Attrs: inlinehint mustprogress nounwind null_pointer_is_valid sspstrong uwtable
define linkonce_odr void @_ZN5QListIiED2Ev(ptr noundef align 8 dereferenceable_or_null(24) %0) unnamed_addr #3 comdat align 2 {
  %2 = alloca ptr, align 8
  store ptr %0, ptr %2, align 8
  %3 = load ptr, ptr %2, align 8
  %4 = getelementptr inbounds nuw %class.QList.5, ptr %3, i32 0, i32 0
  call void @_ZN17QArrayDataPointerIiED2Ev(ptr noundef align 8 dereferenceable_or_null(24) %4) #23
  ret void
}

; Function Attrs: mustprogress null_pointer_is_valid sspstrong uwtable
define linkonce_odr void @_ZN5QListI4QMapIi7QStringEE9push_backEOS2_(ptr noundef align 8 dereferenceable_or_null(24) %0, ptr noundef align 8 dereferenceable(8) %1) #0 comdat align 2 {
  %3 = alloca ptr, align 8
  %4 = alloca ptr, align 8
  store ptr %0, ptr %3, align 8
  store ptr %1, ptr %4, align 8
  %5 = load ptr, ptr %3, align 8
  %6 = load ptr, ptr %4, align 8
  call void @_ZN5QListI4QMapIi7QStringEE6appendEOS2_(ptr noundef align 8 dereferenceable_or_null(24) %5, ptr noundef align 8 dereferenceable(8) %6)
  ret void
}

; Function Attrs: mustprogress nounwind null_pointer_is_valid sspstrong uwtable
define linkonce_odr void @_ZN4QMapIi7QStringEC2Ev(ptr noundef align 8 dereferenceable_or_null(8) %0) unnamed_addr #2 comdat align 2 {
  %2 = alloca ptr, align 8
  store ptr %0, ptr %2, align 8
  %3 = load ptr, ptr %2, align 8
  %4 = getelementptr inbounds nuw %class.QMap, ptr %3, i32 0, i32 0
  call void @_ZN9QtPrivate30QExplicitlySharedDataPointerV2I8QMapDataISt3mapIi7QStringSt4lessIiESaISt4pairIKiS3_EEEEEC2Ev(ptr noundef align 8 dereferenceable_or_null(8) %4) #23
  ret void
}

; Function Attrs: mustprogress null_pointer_is_valid sspstrong uwtable
define void @_ZN8UatModel7loadUatEP8epan_uat(ptr noundef align 8 dereferenceable_or_null(80) %0, ptr noundef %1) #0 align 2 personality ptr @__gxx_personality_v0 {
  %3 = alloca ptr, align 8
  %4 = alloca ptr, align 8
  %5 = alloca i32, align 4
  %6 = alloca %class.QMap, align 8
  %7 = alloca ptr, align 8
  %8 = alloca i32, align 4
  %9 = alloca %class.QList.5, align 8
  store ptr %0, ptr %3, align 8
  store ptr %1, ptr %4, align 8
  %10 = load ptr, ptr %3, align 8
  %11 = load ptr, ptr %4, align 8
  %12 = getelementptr inbounds nuw %class.UatModel, ptr %10, i32 0, i32 1
  store ptr %11, ptr %12, align 8
  %13 = getelementptr inbounds nuw %class.UatModel, ptr %10, i32 0, i32 3
  %14 = getelementptr inbounds nuw %class.UatModel, ptr %10, i32 0, i32 1
  %15 = load ptr, ptr %14, align 8
  %16 = getelementptr inbounds nuw %struct.epan_uat, ptr %15, i32 0, i32 17
  %17 = load ptr, ptr %16, align 8
  %18 = getelementptr inbounds nuw %struct._GArray, ptr %17, i32 0, i32 1
  %19 = load i32, ptr %18, align 8
  %20 = zext i32 %19 to i64
  call void @_ZN5QListIbE7reserveEx(ptr noundef align 8 dereferenceable_or_null(24) %13, i64 noundef %20)
  %21 = getelementptr inbounds nuw %class.UatModel, ptr %10, i32 0, i32 4
  %22 = getelementptr inbounds nuw %class.UatModel, ptr %10, i32 0, i32 1
  %23 = load ptr, ptr %22, align 8
  %24 = getelementptr inbounds nuw %struct.epan_uat, ptr %23, i32 0, i32 17
  %25 = load ptr, ptr %24, align 8
  %26 = getelementptr inbounds nuw %struct._GArray, ptr %25, i32 0, i32 1
  %27 = load i32, ptr %26, align 8
  %28 = zext i32 %27 to i64
  call void @_ZN5QListI4QMapIi7QStringEE7reserveEx(ptr noundef align 8 dereferenceable_or_null(24) %21, i64 noundef %28)
  call void @llvm.lifetime.start.p0(i64 4, ptr %5) #23
  store i32 0, ptr %5, align 4
  br label %29

29:                                               ; preds = %44, %2
  %30 = load i32, ptr %5, align 4
  %31 = getelementptr inbounds nuw %class.UatModel, ptr %10, i32 0, i32 1
  %32 = load ptr, ptr %31, align 8
  %33 = getelementptr inbounds nuw %struct.epan_uat, ptr %32, i32 0, i32 17
  %34 = load ptr, ptr %33, align 8
  %35 = getelementptr inbounds nuw %struct._GArray, ptr %34, i32 0, i32 1
  %36 = load i32, ptr %35, align 8
  %37 = icmp slt i32 %30, %36
  br i1 %37, label %39, label %38

38:                                               ; preds = %29
  call void @llvm.lifetime.end.p0(i64 4, ptr %5) #23
  br label %51

39:                                               ; preds = %29
  %40 = getelementptr inbounds nuw %class.UatModel, ptr %10, i32 0, i32 4
  call void @llvm.lifetime.start.p0(i64 8, ptr %6) #23
  call void @llvm.memset.p0.i64(ptr align 8 %6, i8 0, i64 8, i1 false)
  call void @_ZN4QMapIi7QStringEC2Ev(ptr noundef align 8 dereferenceable_or_null(8) %6) #23
  invoke void @_ZN5QListI4QMapIi7QStringEE9push_backEOS2_(ptr noundef align 8 dereferenceable_or_null(24) %40, ptr noundef align 8 dereferenceable(8) %6)
          to label %41 unwind label %47

41:                                               ; preds = %39
  call void @_ZN4QMapIi7QStringED2Ev(ptr noundef align 8 dereferenceable_or_null(8) %6) #23
  call void @llvm.lifetime.end.p0(i64 8, ptr %6) #23
  %42 = load i32, ptr %5, align 4
  call void @_ZN8UatModel8checkRowEi(ptr dead_on_unwind writable sret(%class.QList.5) align 8 %9, ptr noundef align 8 dereferenceable_or_null(80) %10, i32 noundef %42)
  call void @_ZN5QListIiED2Ev(ptr noundef align 8 dereferenceable_or_null(24) %9) #23
  %43 = getelementptr inbounds nuw %class.UatModel, ptr %10, i32 0, i32 3
  call void @_ZN5QListIbE9push_backEb(ptr noundef align 8 dereferenceable_or_null(24) %43, i1 noundef zeroext false)
  br label %44

44:                                               ; preds = %41
  %45 = load i32, ptr %5, align 4
  %46 = add i32 %45, 1
  store i32 %46, ptr %5, align 4
  br label %29, !llvm.loop !6

47:                                               ; preds = %39
  %48 = landingpad { ptr, i32 }
          cleanup
  %49 = extractvalue { ptr, i32 } %48, 0
  store ptr %49, ptr %7, align 8
  %50 = extractvalue { ptr, i32 } %48, 1
  store i32 %50, ptr %8, align 4
  call void @_ZN4QMapIi7QStringED2Ev(ptr noundef align 8 dereferenceable_or_null(8) %6) #23
  call void @llvm.lifetime.end.p0(i64 8, ptr %6) #23
  call void @llvm.lifetime.end.p0(i64 4, ptr %5) #23
  br label %52

51:                                               ; preds = %38
  ret void

52:                                               ; preds = %47
  %53 = load ptr, ptr %7, align 8
  %54 = load i32, ptr %8, align 4
  %55 = insertvalue { ptr, i32 } poison, ptr %53, 0
  %56 = insertvalue { ptr, i32 } %55, i32 %54, 1
  resume { ptr, i32 } %56
}