; Function Attrs: mustprogress null_pointer_is_valid sspstrong uwtable
define void @_ZN8UatModel7loadUatEP8epan_uat(ptr noundef align 8 dereferenceable_or_null(80) initializes((16, 24)) %0, ptr noundef %1) local_unnamed_addr #0 align 2 personality ptr @__gxx_personality_v0 {
  %3 = alloca i8, align 1
  %4 = alloca %class.QMap, align 8
  %5 = alloca %class.QList.5, align 8
  %6 = getelementptr inbounds nuw i8, ptr %0, i64 16
  store ptr %1, ptr %6, align 8
  %7 = getelementptr inbounds nuw i8, ptr %0, i64 32
  %8 = getelementptr inbounds nuw i8, ptr %1, i64 136
  %9 = load ptr, ptr %8, align 8
  %10 = getelementptr inbounds nuw i8, ptr %9, i64 8
  %11 = load i32, ptr %10, align 8
  %12 = zext i32 %11 to i64
  tail call void @_ZN5QListIbE7reserveEx(ptr noundef nonnull align 8 dereferenceable_or_null(24) %7, i64 noundef %12)
  %13 = getelementptr inbounds nuw i8, ptr %0, i64 56
  %14 = load ptr, ptr %6, align 8
  %15 = getelementptr inbounds nuw i8, ptr %14, i64 136
  %16 = load ptr, ptr %15, align 8
  %17 = getelementptr inbounds nuw i8, ptr %16, i64 8
  %18 = load i32, ptr %17, align 8
  %19 = zext i32 %18 to i64
  tail call void @_ZN5QListI4QMapIi7QStringEE7reserveEx(ptr noundef nonnull align 8 dereferenceable_or_null(24) %13, i64 noundef %19)
  %20 = load ptr, ptr %6, align 8
  %21 = getelementptr inbounds nuw i8, ptr %20, i64 136
  %22 = load ptr, ptr %21, align 8
  %23 = getelementptr inbounds nuw i8, ptr %22, i64 8
  %24 = load i32, ptr %23, align 8
  %25 = icmp sgt i32 %24, 0
  br i1 %25, label %.lr.ph, label %._crit_edge

.lr.ph:                                           ; preds = %2
  %26 = getelementptr inbounds nuw i8, ptr %0, i64 72
  %27 = getelementptr inbounds nuw i8, ptr %0, i64 48
  br label %28

._crit_edge:                                      ; preds = %_ZN5QListIiED2Ev.exit, %2
  ret void

28:                                               ; preds = %.lr.ph, %_ZN5QListIiED2Ev.exit
  %.07 = phi i32 [ 0, %.lr.ph ], [ %48, %_ZN5QListIiED2Ev.exit ]
  call void @llvm.lifetime.start.p0(i64 8, ptr nonnull %4) #24
  store ptr null, ptr %4, align 8
  %29 = load i64, ptr %26, align 8
  invoke void @_ZN9QtPrivate16QMovableArrayOpsI4QMapIi7QStringEE7emplaceIJS3_EEEvxDpOT_(ptr noundef nonnull align 8 dereferenceable_or_null(24) %13, i64 noundef %29, ptr noundef nonnull align 8 dereferenceable(8) %4)
          to label %_ZN5QListI4QMapIi7QStringEE9push_backEOS2_.exit unwind label %55

_ZN5QListI4QMapIi7QStringEE9push_backEOS2_.exit:  ; preds = %28
  %30 = load ptr, ptr %4, align 8
  %.not.i.i = icmp eq ptr %30, null
  br i1 %.not.i.i, label %_ZN4QMapIi7QStringED2Ev.exit, label %31

31:                                               ; preds = %_ZN5QListI4QMapIi7QStringEE9push_backEOS2_.exit
  %32 = atomicrmw sub ptr %30, i32 1 seq_cst, align 4
  %.not2.i.i = icmp eq i32 %32, 1
  br i1 %.not2.i.i, label %33, label %_ZN4QMapIi7QStringED2Ev.exit

33:                                               ; preds = %31
  %34 = load ptr, ptr %4, align 8
  %35 = icmp eq ptr %34, null
  br i1 %35, label %_ZN4QMapIi7QStringED2Ev.exit, label %36

36:                                               ; preds = %33
  %37 = getelementptr inbounds nuw i8, ptr %34, i64 8
  %38 = getelementptr inbounds nuw i8, ptr %34, i64 24
  %39 = load ptr, ptr %38, align 8
  invoke void @_ZNSt8_Rb_treeIiSt4pairIKi7QStringESt10_Select1stIS3_ESt4lessIiESaIS3_EE8_M_eraseEPSt13_Rb_tree_nodeIS3_E(ptr noundef nonnull align 8 dereferenceable_or_null(48) %37, ptr noundef %39)
          to label %_ZN8QMapDataISt3mapIi7QStringSt4lessIiESaISt4pairIKiS1_EEEED2Ev.exit.i.i unwind label %40

40:                                               ; preds = %36
  %41 = landingpad { ptr, i32 }
          catch ptr null
  %42 = extractvalue { ptr, i32 } %41, 0
  call void @__clang_call_terminate(ptr %42) #25
  unreachable

_ZN8QMapDataISt3mapIi7QStringSt4lessIiESaISt4pairIKiS1_EEEED2Ev.exit.i.i: ; preds = %36
  call void @_ZdlPvm(ptr noundef nonnull %34, i64 noundef 56) #26
  br label %_ZN4QMapIi7QStringED2Ev.exit

_ZN4QMapIi7QStringED2Ev.exit:                     ; preds = %_ZN5QListI4QMapIi7QStringEE9push_backEOS2_.exit, %31, %33, %_ZN8QMapDataISt3mapIi7QStringSt4lessIiESaISt4pairIKiS1_EEEED2Ev.exit.i.i
  call void @llvm.lifetime.end.p0(i64 8, ptr nonnull %4) #24
  call void @_ZN8UatModel8checkRowEi(ptr dead_on_unwind nonnull writable sret(%class.QList.5) align 8 %5, ptr noundef align 8 dereferenceable_or_null(80) %0, i32 noundef %.07)
  %43 = load ptr, ptr %5, align 8
  %.not.i.i.i = icmp eq ptr %43, null
  br i1 %.not.i.i.i, label %_ZN5QListIiED2Ev.exit, label %_ZN17QArrayDataPointerIiE5derefEv.exit.i.i

_ZN17QArrayDataPointerIiE5derefEv.exit.i.i:       ; preds = %_ZN4QMapIi7QStringED2Ev.exit
  %44 = atomicrmw sub ptr %43, i32 1 seq_cst, align 4
  %.not.i.i6 = icmp eq i32 %44, 1
  br i1 %.not.i.i6, label %45, label %_ZN5QListIiED2Ev.exit

45:                                               ; preds = %_ZN17QArrayDataPointerIiE5derefEv.exit.i.i
  %46 = load ptr, ptr %5, align 8
  call void @_ZN10QArrayData10deallocateEPS_xx(ptr noundef %46, i64 noundef 4, i64 noundef 8) #24
  br label %_ZN5QListIiED2Ev.exit

_ZN5QListIiED2Ev.exit:                            ; preds = %_ZN4QMapIi7QStringED2Ev.exit, %_ZN17QArrayDataPointerIiE5derefEv.exit.i.i, %45
  call void @llvm.lifetime.start.p0(i64 1, ptr nonnull %3)
  store i8 0, ptr %3, align 1
  %47 = load i64, ptr %27, align 8
  call void @_ZN9QtPrivate12QPodArrayOpsIbE7emplaceIJRbEEEvxDpOT_(ptr noundef nonnull align 8 dereferenceable_or_null(24) %7, i64 noundef %47, ptr noundef nonnull align 1 dereferenceable(1) %3)
  call void @llvm.lifetime.end.p0(i64 1, ptr nonnull %3)
  %48 = add nuw nsw i32 %.07, 1
  %49 = load ptr, ptr %6, align 8
  %50 = getelementptr inbounds nuw i8, ptr %49, i64 136
  %51 = load ptr, ptr %50, align 8
  %52 = getelementptr inbounds nuw i8, ptr %51, i64 8
  %53 = load i32, ptr %52, align 8
  %54 = icmp slt i32 %48, %53
  br i1 %54, label %28, label %._crit_edge, !llvm.loop !6

55:                                               ; preds = %28
  %56 = landingpad { ptr, i32 }
          cleanup
  call void @_ZN4QMapIi7QStringED2Ev(ptr noundef nonnull align 8 dereferenceable_or_null(8) %4) #24
  call void @llvm.lifetime.end.p0(i64 8, ptr nonnull %4) #24
  resume { ptr, i32 } %56
}